target datalayout = "e-m:e-p270:32:32-p271:32:32-p272:64:64-i64:64-i128:128-f80:128-n8:16:32:64-S128"
target triple = "x86_64-pc-linux-gnu"

%struct._console_menu = type { ptr, ptr, ptr, ptr, ptr, ptr }

@registered_console_menus = internal global ptr null, align 8

; Function Attrs: null_pointer_is_valid sspstrong uwtable
define void @funnel_register_console_menu(ptr noundef %0, ptr noundef %1, ptr noundef %2, ptr noundef %3, ptr noundef %4, ptr noundef %5) #1 {
  %7 = alloca ptr, align 8
  %8 = alloca ptr, align 8
  %9 = alloca ptr, align 8
  %10 = alloca ptr, align 8
  %11 = alloca ptr, align 8
  %12 = alloca ptr, align 8
  %13 = alloca ptr, align 8
  %14 = alloca i64, align 8
  %15 = alloca i64, align 8
  %16 = alloca ptr, align 8
  %17 = alloca ptr, align 8
  store ptr %0, ptr %7, align 8
  store ptr %1, ptr %8, align 8
  store ptr %2, ptr %9, align 8
  store ptr %3, ptr %10, align 8
  store ptr %4, ptr %11, align 8
  store ptr %5, ptr %12, align 8
  call void @llvm.lifetime.start.p0(i64 8, ptr %13) #8
  call void @llvm.lifetime.start.p0(i64 8, ptr %14) #8
  store i64 1, ptr %14, align 8
  call void @llvm.lifetime.start.p0(i64 8, ptr %15) #8
  store i64 48, ptr %15, align 8
  call void @llvm.lifetime.start.p0(i64 8, ptr %16) #8
  %18 = load i64, ptr %15, align 8
  %19 = icmp eq i64 %18, 1
  br i1 %19, label %20, label %23

20:                                               ; preds = %6
  %21 = load i64, ptr %14, align 8
  %22 = call noalias ptr @g_malloc0(i64 noundef %21) #9
  store ptr %22, ptr %16, align 8
  br label %44

23:                                               ; preds = %6
  %24 = load i64, ptr %14, align 8
  %25 = call i1 @llvm.is.constant.i64(i64 %24)
  br i1 %25, label %26, label %39

26:                                               ; preds = %23
  %27 = load i64, ptr %15, align 8
  %28 = icmp eq i64 %27, 0
  br i1 %28, label %34, label %29

29:                                               ; preds = %26
  %30 = load i64, ptr %14, align 8
  %31 = load i64, ptr %15, align 8
  %32 = udiv i64 -1, %31
  %33 = icmp ule i64 %30, %32
  br i1 %33, label %34, label %39

34:                                               ; preds = %29, %26
  %35 = load i64, ptr %14, align 8
  %36 = load i64, ptr %15, align 8
  %37 = mul i64 %35, %36
  %38 = call noalias ptr @g_malloc0(i64 noundef %37) #9
  store ptr %38, ptr %16, align 8
  br label %43

39:                                               ; preds = %29, %23
  %40 = load i64, ptr %14, align 8
  %41 = load i64, ptr %15, align 8
  %42 = call noalias ptr @g_malloc0_n(i64 noundef %40, i64 noundef %41) #10
  store ptr %42, ptr %16, align 8
  br label %43

43:                                               ; preds = %39, %34
  br label %44

44:                                               ; preds = %43, %20
  %45 = load ptr, ptr %16, align 8
  store ptr %45, ptr %17, align 8
  call void @llvm.lifetime.end.p0(i64 8, ptr %16) #8
  call void @llvm.lifetime.end.p0(i64 8, ptr %15) #8
  call void @llvm.lifetime.end.p0(i64 8, ptr %14) #8
  %46 = load ptr, ptr %17, align 8
  store ptr %46, ptr %13, align 8
  %47 = load ptr, ptr %7, align 8
  %48 = call noalias ptr @g_strdup(ptr noundef %47)
  %49 = load ptr, ptr %13, align 8
  %50 = getelementptr inbounds nuw %struct._console_menu, ptr %49, i32 0, i32 0
  store ptr %48, ptr %50, align 8
  %51 = load ptr, ptr %8, align 8
  %52 = load ptr, ptr %13, align 8
  %53 = getelementptr inbounds nuw %struct._console_menu, ptr %52, i32 0, i32 1
  store ptr %51, ptr %53, align 8
  %54 = load ptr, ptr %9, align 8
  %55 = load ptr, ptr %13, align 8
  %56 = getelementptr inbounds nuw %struct._console_menu, ptr %55, i32 0, i32 2
  store ptr %54, ptr %56, align 8
  %57 = load ptr, ptr %10, align 8
  %58 = load ptr, ptr %13, align 8
  %59 = getelementptr inbounds nuw %struct._console_menu, ptr %58, i32 0, i32 3
  store ptr %57, ptr %59, align 8
  %60 = load ptr, ptr %11, align 8
  %61 = load ptr, ptr %13, align 8
  %62 = getelementptr inbounds nuw %struct._console_menu, ptr %61, i32 0, i32 4
  store ptr %60, ptr %62, align 8
  %63 = load ptr, ptr %12, align 8
  %64 = load ptr, ptr %13, align 8
  %65 = getelementptr inbounds nuw %struct._console_menu, ptr %64, i32 0, i32 5
  store ptr %63, ptr %65, align 8
  %66 = load ptr, ptr @registered_console_menus, align 8
  %67 = load ptr, ptr %13, align 8
  %68 = call ptr @g_slist_prepend(ptr noundef %66, ptr noundef %67)
  store ptr %68, ptr @registered_console_menus, align 8
  call void @llvm.lifetime.end.p0(i64 8, ptr %13) #8
  ret void
}