; Function Attrs: null_pointer_is_valid sspstrong uwtable
define void @funnel_register_console_menu(ptr noundef %0, ptr noundef %1, ptr noundef %2, ptr noundef %3, ptr noundef %4, ptr noundef %5) local_unnamed_addr #2 {
  %7 = tail call noalias dereferenceable_or_null(48) ptr @g_malloc0(i64 noundef 48) #6
  %8 = tail call noalias ptr @g_strdup(ptr noundef %0)
  store ptr %8, ptr %7, align 8
  %9 = getelementptr inbounds nuw i8, ptr %7, i64 8
  store ptr %1, ptr %9, align 8
  %10 = getelementptr inbounds nuw i8, ptr %7, i64 16
  store ptr %2, ptr %10, align 8
  %11 = getelementptr inbounds nuw i8, ptr %7, i64 24
  store ptr %3, ptr %11, align 8
  %12 = getelementptr inbounds nuw i8, ptr %7, i64 32
  store ptr %4, ptr %12, align 8
  %13 = getelementptr inbounds nuw i8, ptr %7, i64 40
  store ptr %5, ptr %13, align 8
  %14 = load ptr, ptr @registered_console_menus, align 8
  %15 = tail call ptr @g_slist_prepend(ptr noundef %14, ptr noundef %7)
  store ptr %15, ptr @registered_console_menus, align 8
  ret void
}